(lp1
(lp2
I-1
aI-1
aI-1
aI-1
aa(lp3
I-1
aI-1
aI-1
aI-1
aa(lp4
I-1
aI-1
aI-1
aI-1
aa(lp5
I-1
aI-1
aI-1
aI-1
aa(lp6
I-1
aI-1
aI-1
aI-1
aa(lp7
I-1
aI-1
aI-1
aI-1
aa(lp8
I-1
aI-1
aI-1
aI-1
aa(lp9
I-1
aI-1
aI-1
aI-1
aa(lp10
I-1
aI-1
aI-1
aI-1
aa(lp11
I-1
aI-1
aI-1
aI-1
aa(lp12
I-1
aI-1
aI-1
aI-1
aa(lp13
I-1
aI-1
aI-1
aI-1
aa(lp14
I-1
aI-1
aI-1
aI-1
aa(lp15
I-1
aI-1
aI-1
aI-1
aa(lp16
I-1
aI-1
aI-1
aI-1
aa(lp17
I-1
aI-1
aI-1
aI-1
aa(lp18
I-1
aI-1
aI-1
aI-1
aa(lp19
I-1
aI-1
aI-1
aI-1
aa(lp20
I-1
aI-1
aI-1
aI-1
aa(lp21
I-1
aI-1
aI-1
aI-1
aa(lp22
I-1
aI-1
aI-1
aI-1
aa(lp23
I-1
aI-1
aI-1
aI-1
aa(lp24
I-1
aI-1
aI-1
aI-1
aa(lp25
I-1
aI-1
aI-1
aI-1
aa(lp26
I-1
aI-1
aI-1
aI-1
aa(lp27
I-1
aI-1
aI-1
aI-1
aa(lp28
I-1
aI-1
aI-1
aI-1
aa(lp29
I-1
aI-1
aI-1
aI-1
aa(lp30
I-1
aI-1
aI-1
aI-1
aa(lp31
I-1
aI-1
aI-1
aI-1
aa(lp32
I-1
aI-1
aI-1
aI-1
aa(lp33
I-1
aI-1
aI-1
aI-1
aa(lp34
I-1
aI-1
aI-1
aI-1
aa(lp35
I-1
aI-1
aI-1
aI-1
aa(lp36
I-1
aI-1
aI-1
aI-1
aa(lp37
I-1
aI-1
aI-1
aI-1
aa(lp38
I-1
aI-1
aI-1
aI-1
aa(lp39
I-1
aI-1
aI-1
aI-1
aa(lp40
I-1
aI-1
aI-1
aI-1
aa(lp41
I-1
aI-1
aI-1
aI-1
aa(lp42
I-1
aI-1
aI-1
aI-1
aa(lp43
I-1
aI-1
aI-1
aI-1
aa(lp44
I-1
aI-1
aI-1
aI-1
aa(lp45
I-1
aI-1
aI-1
aI-1
aa(lp46
I-1
aI-1
aI-1
aI-1
aa(lp47
I-1
aI-1
aI-1
aI-1
aa(lp48
I-1
aI-1
aI-1
aI-1
aa(lp49
I-1
aI-1
aI-1
aI-1
aa(lp50
I-1
aI-1
aI-1
aI-1
aa(lp51
I-1
aI-1
aI-1
aI-1
aa(lp52
I-1
aI-1
aI-1
aI-1
aa(lp53
I-1
aI-1
aI-1
aI-1
aa(lp54
I-1
aI-1
aI-1
aI-1
aa(lp55
I-1
aI-1
aI-1
aI-1
aa(lp56
I-1
aI-1
aI-1
aI-1
aa(lp57
I-1
aI-1
aI-1
aI-1
aa(lp58
I-1
aI-1
aI-1
aI-1
aa(lp59
I-1
aI-1
aI-1
aI-1
aa(lp60
I-1
aI-1
aI-1
aI-1
aa(lp61
I-1
aI-1
aI-1
aI-1
aa(lp62
I-1
aI-1
aI-1
aI-1
aa(lp63
I-1
aI-1
aI-1
aI-1
aa(lp64
I-1
aI-1
aI-1
aI-1
aa(lp65
I-1
aI-1
aI-1
aI-1
aa(lp66
I-1
aI-1
aI-1
aI-1
aa(lp67
I-1
aI-1
aI-1
aI-1
aa(lp68
I-1
aI-1
aI-1
aI-1
aa(lp69
I-1
aI-1
aI-1
aI-1
aa(lp70
I-1
aI-1
aI-1
aI-1
aa(lp71
I-1
aI-1
aI-1
aI-1
aa(lp72
I-1
aI-1
aI-1
aI-1
aa(lp73
I-1
aI-1
aI-1
aI-1
aa(lp74
I-1
aI-1
aI-1
aI-1
aa(lp75
I-1
aI-1
aI-1
aI-1
aa(lp76
I-1
aI-1
aI-1
aI-1
aa(lp77
I-1
aI-1
aI-1
aI-1
aa(lp78
I-1
aI-1
aI-1
aI-1
aa(lp79
I-1
aI-1
aI-1
aI-1
aa(lp80
I-1
aI-1
aI-1
aI-1
aa(lp81
I-1
aI-1
aI-1
aI-1
aa(lp82
I-1
aI-1
aI-1
aI-1
aa(lp83
I-1
aI-1
aI-1
aI-1
aa(lp84
I-1
aI-1
aI-1
aI-1
aa(lp85
I-1
aI-1
aI-1
aI-1
aa(lp86
I-1
aI-1
aI-1
aI-1
aa(lp87
I-1
aI-1
aI-1
aI-1
aa(lp88
I-1
aI-1
aI-1
aI-1
aa(lp89
I-1
aI-1
aI-1
aI-1
aa(lp90
I-1
aI-1
aI-1
aI-1
aa(lp91
I-1
aI-1
aI-1
aI-1
aa(lp92
I-1
aI-1
aI-1
aI-1
aa(lp93
I-1
aI-1
aI-1
aI-1
aa(lp94
I-1
aI-1
aI-1
aI-1
aa(lp95
I-1
aI-1
aI-1
aI-1
aa(lp96
I-1
aI-1
aI-1
aI-1
aa(lp97
I-1
aI-1
aI-1
aI-1
aa(lp98
I-1
aI-1
aI-1
aI-1
aa(lp99
I-1
aI-1
aI-1
aI-1
aa(lp100
I-1
aI-1
aI-1
aI-1
aa(lp101
I-1
aI-1
aI-1
aI-1
aa(lp102
I-1
aI-1
aI-1
aI-1
aa(lp103
I-1
aI-1
aI-1
aI-1
aa(lp104
I-1
aI-1
aI-1
aI-1
aa(lp105
I-1
aI-1
aI-1
aI-1
aa(lp106
I-1
aI-1
aI-1
aI-1
aa(lp107
I-1
aI-1
aI-1
aI-1
aa(lp108
I-1
aI-1
aI-1
aI-1
aa(lp109
I-1
aI-1
aI-1
aI-1
aa(lp110
I-1
aI-1
aI-1
aI-1
aa(lp111
I-1
aI-1
aI-1
aI-1
aa(lp112
I-1
aI-1
aI-1
aI-1
aa(lp113
I-1
aI-1
aI-1
aI-1
aa(lp114
I-1
aI-1
aI-1
aI-1
aa(lp115
I-1
aI-1
aI-1
aI-1
aa(lp116
I-1
aI-1
aI-1
aI-1
aa(lp117
I-1
aI-1
aI-1
aI-1
aa(lp118
I-1
aI-1
aI-1
aI-1
aa(lp119
I-1
aI-1
aI-1
aI-1
aa(lp120
I-1
aI-1
aI-1
aI-1
aa(lp121
I-1
aI-1
aI-1
aI-1
aa(lp122
I-1
aI-1
aI-1
aI-1
aa(lp123
I-1
aI-1
aI-1
aI-1
aa(lp124
I-1
aI-1
aI-1
aI-1
aa(lp125
I-1
aI-1
aI-1
aI-1
aa(lp126
I-1
aI-1
aI-1
aI-1
aa(lp127
I-1
aI-1
aI-1
aI-1
aa(lp128
I-1
aI-1
aI-1
aI-1
aa(lp129
I-1
aI-1
aI-1
aI-1
aa(lp130
I-1
aI-1
aI-1
aI-1
aa(lp131
I-1
aI-1
aI-1
aI-1
aa(lp132
I-1
aI-1
aI-1
aI-1
aa(lp133
I-1
aI-1
aI-1
aI-1
aa(lp134
I-1
aI-1
aI-1
aI-1
aa(lp135
I-1
aI-1
aI-1
aI-1
aa(lp136
I-1
aI-1
aI-1
aI-1
aa(lp137
I-1
aI-1
aI-1
aI-1
aa(lp138
I-1
aI-1
aI-1
aI-1
aa(lp139
I-1
aI-1
aI-1
aI-1
aa(lp140
I-1
aI-1
aI-1
aI-1
aa(lp141
I-1
aI-1
aI-1
aI-1
aa(lp142
I-1
aI-1
aI-1
aI-1
aa(lp143
I-1
aI-1
aI-1
aI-1
aa(lp144
I-1
aI-1
aI-1
aI-1
aa(lp145
I-1
aI-1
aI-1
aI-1
aa(lp146
I-1
aI-1
aI-1
aI-1
aa(lp147
I-1
aI-1
aI-1
aI-1
aa(lp148
I-1
aI-1
aI-1
aI-1
aa(lp149
I-1
aI-1
aI-1
aI-1
aa(lp150
I-1
aI-1
aI-1
aI-1
aa(lp151
I-1
aI-1
aI-1
aI-1
aa(lp152
I-1
aI-1
aI-1
aI-1
aa(lp153
I-1
aI-1
aI-1
aI-1
aa(lp154
I-1
aI-1
aI-1
aI-1
aa(lp155
I-1
aI-1
aI-1
aI-1
aa(lp156
I-1
aI-1
aI-1
aI-1
aa(lp157
I-1
aI-1
aI-1
aI-1
aa(lp158
I-1
aI-1
aI-1
aI-1
aa(lp159
I-1
aI-1
aI-1
aI-1
aa(lp160
I-1
aI-1
aI-1
aI-1
aa(lp161
I-1
aI-1
aI-1
aI-1
aa(lp162
I-1
aI-1
aI-1
aI-1
aa(lp163
I-1
aI-1
aI-1
aI-1
aa(lp164
I-1
aI-1
aI-1
aI-1
aa(lp165
I-1
aI-1
aI-1
aI-1
aa(lp166
I-1
aI-1
aI-1
aI-1
aa(lp167
I-1
aI-1
aI-1
aI-1
aa(lp168
I-1
aI-1
aI-1
aI-1
aa(lp169
I-1
aI-1
aI-1
aI-1
aa(lp170
I-1
aI-1
aI-1
aI-1
aa(lp171
I-1
aI-1
aI-1
aI-1
aa(lp172
I-1
aI-1
aI-1
aI-1
aa(lp173
I-1
aI-1
aI-1
aI-1
aa(lp174
I-1
aI-1
aI-1
aI-1
aa(lp175
I-1
aI-1
aI-1
aI-1
aa(lp176
I-1
aI-1
aI-1
aI-1
aa(lp177
I-1
aI-1
aI-1
aI-1
aa(lp178
I-1
aI-1
aI-1
aI-1
aa(lp179
I-1
aI-1
aI-1
aI-1
aa(lp180
I-1
aI-1
aI-1
aI-1
aa(lp181
I-1
aI-1
aI-1
aI-1
aa(lp182
I-1
aI-1
aI-1
aI-1
aa(lp183
I-1
aI-1
aI-1
aI-1
aa(lp184
I-1
aI-1
aI-1
aI-1
aa(lp185
I-1
aI-1
aI-1
aI-1
aa(lp186
I-1
aI-1
aI-1
aI-1
aa(lp187
I-1
aI-1
aI-1
aI-1
aa(lp188
I-1
aI-1
aI-1
aI-1
aa(lp189
I-1
aI-1
aI-1
aI-1
aa(lp190
I-1
aI-1
aI-1
aI-1
aa(lp191
I-1
aI-1
aI-1
aI-1
aa(lp192
I-1
aI-1
aI-1
aI-1
aa(lp193
I-1
aI-1
aI-1
aI-1
aa(lp194
I-1
aI-1
aI-1
aI-1
aa(lp195
I-1
aI-1
aI-1
aI-1
aa(lp196
I-1
aI-1
aI-1
aI-1
aa(lp197
I-1
aI-1
aI-1
aI-1
aa(lp198
I-1
aI-1
aI-1
aI-1
aa(lp199
I-1
aI-1
aI-1
aI-1
aa(lp200
I-1
aI-1
aI-1
aI-1
aa(lp201
I-1
aI-1
aI-1
aI-1
aa(lp202
I-1
aI-1
aI-1
aI-1
aa(lp203
I-1
aI-1
aI-1
aI-1
aa(lp204
I-1
aI-1
aI-1
aI-1
aa(lp205
I-1
aI-1
aI-1
aI-1
aa(lp206
I-1
aI-1
aI-1
aI-1
aa(lp207
I-1
aI-1
aI-1
aI-1
aa(lp208
I-1
aI-1
aI-1
aI-1
aa(lp209
I-1
aI-1
aI-1
aI-1
aa(lp210
I-1
aI-1
aI-1
aI-1
aa(lp211
I-1
aI-1
aI-1
aI-1
aa(lp212
I-1
aI-1
aI-1
aI-1
aa(lp213
I-1
aI-1
aI-1
aI-1
aa(lp214
I-1
aI-1
aI-1
aI-1
aa(lp215
I-1
aI-1
aI-1
aI-1
aa(lp216
I-1
aI-1
aI-1
aI-1
aa(lp217
I-1
aI-1
aI-1
aI-1
aa(lp218
I-1
aI-1
aI-1
aI-1
aa(lp219
I-1
aI-1
aI-1
aI-1
aa(lp220
I-1
aI-1
aI-1
aI-1
aa(lp221
I-1
aI-1
aI-1
aI-1
aa(lp222
I-1
aI-1
aI-1
aI-1
aa(lp223
I-1
aI-1
aI-1
aI-1
aa(lp224
I-1
aI-1
aI-1
aI-1
aa(lp225
I-1
aI-1
aI-1
aI-1
aa(lp226
I-1
aI-1
aI-1
aI-1
aa(lp227
I-1
aI-1
aI-1
aI-1
aa(lp228
I-1
aI-1
aI-1
aI-1
aa(lp229
I-1
aI-1
aI-1
aI-1
aa(lp230
I-1
aI-1
aI-1
aI-1
aa(lp231
I-1
aI-1
aI-1
aI-1
aa(lp232
I-1
aI-1
aI-1
aI-1
aa(lp233
I-1
aI-1
aI-1
aI-1
aa(lp234
I-1
aI-1
aI-1
aI-1
aa(lp235
I-1
aI-1
aI-1
aI-1
aa(lp236
I-1
aI-1
aI-1
aI-1
aa(lp237
I-1
aI-1
aI-1
aI-1
aa(lp238
I-1
aI-1
aI-1
aI-1
aa(lp239
I-1
aI-1
aI-1
aI-1
aa(lp240
I-1
aI-1
aI-1
aI-1
aa(lp241
I-1
aI-1
aI-1
aI-1
aa(lp242
I-1
aI-1
aI-1
aI-1
aa(lp243
I-1
aI-1
aI-1
aI-1
aa(lp244
I-1
aI-1
aI-1
aI-1
aa(lp245
I-1
aI-1
aI-1
aI-1
aa(lp246
I-1
aI-1
aI-1
aI-1
aa(lp247
I-1
aI-1
aI-1
aI-1
aa(lp248
I-1
aI-1
aI-1
aI-1
aa(lp249
I-1
aI-1
aI-1
aI-1
aa(lp250
I-1
aI-1
aI-1
aI-1
aa(lp251
I-1
aI-1
aI-1
aI-1
aa(lp252
I-1
aI-1
aI-1
aI-1
aa(lp253
I-1
aI-1
aI-1
aI-1
aa(lp254
I-1
aI-1
aI-1
aI-1
aa(lp255
I-1
aI-1
aI-1
aI-1
aa(lp256
I-1
aI-1
aI-1
aI-1
aa(lp257
I-1
aI-1
aI-1
aI-1
aa(lp258
I-1
aI-1
aI-1
aI-1
aa(lp259
I-1
aI-1
aI-1
aI-1
aa(lp260
I-1
aI-1
aI-1
aI-1
aa(lp261
I-1
aI-1
aI-1
aI-1
aa(lp262
I-1
aI-1
aI-1
aI-1
aa(lp263
I-1
aI-1
aI-1
aI-1
aa(lp264
I-1
aI-1
aI-1
aI-1
aa(lp265
I-1
aI-1
aI-1
aI-1
aa(lp266
I-1
aI-1
aI-1
aI-1
aa(lp267
I-1
aI-1
aI-1
aI-1
aa(lp268
I-1
aI-1
aI-1
aI-1
aa(lp269
I-1
aI-1
aI-1
aI-1
aa(lp270
I-1
aI-1
aI-1
aI-1
aa(lp271
I-1
aI-1
aI-1
aI-1
aa(lp272
I-1
aI-1
aI-1
aI-1
aa(lp273
I-1
aI-1
aI-1
aI-1
aa(lp274
I-1
aI-1
aI-1
aI-1
aa(lp275
I-1
aI-1
aI-1
aI-1
aa(lp276
I-1
aI-1
aI-1
aI-1
aa(lp277
I-1
aI-1
aI-1
aI-1
aa(lp278
I-1
aI-1
aI-1
aI-1
aa(lp279
I-1
aI-1
aI-1
aI-1
aa(lp280
I-1
aI-1
aI-1
aI-1
aa(lp281
I-1
aI-1
aI-1
aI-1
aa(lp282
I-1
aI-1
aI-1
aI-1
aa(lp283
I-1
aI-1
aI-1
aI-1
aa(lp284
I-1
aI-1
aI-1
aI-1
aa(lp285
I-1
aI-1
aI-1
aI-1
aa(lp286
I-1
aI-1
aI-1
aI-1
aa(lp287
I-1
aI-1
aI-1
aI-1
aa(lp288
I-1
aI-1
aI-1
aI-1
aa(lp289
I-1
aI-1
aI-1
aI-1
aa(lp290
I-1
aI-1
aI-1
aI-1
aa(lp291
I-1
aI-1
aI-1
aI-1
aa(lp292
I-1
aI-1
aI-1
aI-1
aa(lp293
I-1
aI-1
aI-1
aI-1
aa(lp294
I-1
aI-1
aI-1
aI-1
aa(lp295
I-1
aI-1
aI-1
aI-1
aa(lp296
I-1
aI-1
aI-1
aI-1
aa(lp297
I-1
aI-1
aI-1
aI-1
aa(lp298
I-1
aI-1
aI-1
aI-1
aa(lp299
I-1
aI-1
aI-1
aI-1
aa(lp300
I-1
aI-1
aI-1
aI-1
aa(lp301
I-1
aI-1
aI-1
aI-1
aa(lp302
I-1
aI-1
aI-1
aI-1
aa(lp303
I-1
aI-1
aI-1
aI-1
aa(lp304
I-1
aI-1
aI-1
aI-1
aa(lp305
I-1
aI-1
aI-1
aI-1
aa(lp306
I-1
aI-1
aI-1
aI-1
aa(lp307
I-1
aI-1
aI-1
aI-1
aa(lp308
I-1
aI-1
aI-1
aI-1
aa(lp309
I-1
aI-1
aI-1
aI-1
aa(lp310
I-1
aI-1
aI-1
aI-1
aa(lp311
I-1
aI-1
aI-1
aI-1
aa(lp312
I-1
aI-1
aI-1
aI-1
aa(lp313
I-1
aI-1
aI-1
aI-1
aa(lp314
I-1
aI-1
aI-1
aI-1
aa(lp315
I-1
aI-1
aI-1
aI-1
aa(lp316
I-1
aI-1
aI-1
aI-1
aa(lp317
I-1
aI-1
aI-1
aI-1
aa(lp318
I-1
aI-1
aI-1
aI-1
aa(lp319
I-1
aI-1
aI-1
aI-1
aa(lp320
I-1
aI-1
aI-1
aI-1
aa(lp321
I-1
aI-1
aI-1
aI-1
aa(lp322
I-1
aI-1
aI-1
aI-1
aa(lp323
I-1
aI-1
aI-1
aI-1
aa(lp324
I-1
aI-1
aI-1
aI-1
aa(lp325
I-1
aI-1
aI-1
aI-1
aa(lp326
I-1
aI-1
aI-1
aI-1
aa(lp327
I-1
aI-1
aI-1
aI-1
aa(lp328
I-1
aI-1
aI-1
aI-1
aa(lp329
I-1
aI-1
aI-1
aI-1
aa(lp330
I-1
aI-1
aI-1
aI-1
aa(lp331
I-1
aI-1
aI-1
aI-1
aa(lp332
I-1
aI-1
aI-1
aI-1
aa(lp333
I-1
aI-1
aI-1
aI-1
aa(lp334
I-1
aI-1
aI-1
aI-1
aa(lp335
I-1
aI-1
aI-1
aI-1
aa(lp336
I-1
aI-1
aI-1
aI-1
aa(lp337
I-1
aI-1
aI-1
aI-1
aa(lp338
I-1
aI-1
aI-1
aI-1
aa(lp339
I-1
aI-1
aI-1
aI-1
aa(lp340
I-1
aI-1
aI-1
aI-1
aa(lp341
I-1
aI-1
aI-1
aI-1
aa(lp342
I-1
aI-1
aI-1
aI-1
aa(lp343
I-1
aI-1
aI-1
aI-1
aa(lp344
I-1
aI-1
aI-1
aI-1
aa(lp345
I-1
aI-1
aI-1
aI-1
aa(lp346
I-1
aI-1
aI-1
aI-1
aa(lp347
I-1
aI-1
aI-1
aI-1
aa(lp348
I-1
aI-1
aI-1
aI-1
aa(lp349
I-1
aI-1
aI-1
aI-1
aa(lp350
I-1
aI-1
aI-1
aI-1
aa(lp351
I-1
aI-1
aI-1
aI-1
aa(lp352
I-1
aI-1
aI-1
aI-1
aa(lp353
I-1
aI-1
aI-1
aI-1
aa(lp354
I-1
aI-1
aI-1
aI-1
aa(lp355
I-1
aI-1
aI-1
aI-1
aa(lp356
I-1
aI-1
aI-1
aI-1
aa(lp357
I-1
aI-1
aI-1
aI-1
aa(lp358
I-1
aI-1
aI-1
aI-1
aa(lp359
I-1
aI-1
aI-1
aI-1
aa(lp360
I-1
aI-1
aI-1
aI-1
aa(lp361
I-1
aI-1
aI-1
aI-1
aa(lp362
I-1
aI-1
aI-1
aI-1
aa(lp363
I-1
aI-1
aI-1
aI-1
aa(lp364
I-1
aI-1
aI-1
aI-1
aa(lp365
I-1
aI-1
aI-1
aI-1
aa(lp366
I-1
aI-1
aI-1
aI-1
aa(lp367
I-1
aI-1
aI-1
aI-1
aa(lp368
I-1
aI-1
aI-1
aI-1
aa(lp369
I-1
aI-1
aI-1
aI-1
aa(lp370
I-1
aI-1
aI-1
aI-1
aa(lp371
I-1
aI-1
aI-1
aI-1
aa(lp372
I-1
aI-1
aI-1
aI-1
aa(lp373
I-1
aI-1
aI-1
aI-1
aa(lp374
I-1
aI-1
aI-1
aI-1
aa(lp375
I-1
aI-1
aI-1
aI-1
aa(lp376
I-1
aI-1
aI-1
aI-1
aa(lp377
I-1
aI-1
aI-1
aI-1
aa(lp378
I-1
aI-1
aI-1
aI-1
aa(lp379
I-1
aI-1
aI-1
aI-1
aa(lp380
I-1
aI-1
aI-1
aI-1
aa(lp381
I-1
aI-1
aI-1
aI-1
aa(lp382
I-1
aI-1
aI-1
aI-1
aa(lp383
I-1
aI-1
aI-1
aI-1
aa(lp384
I-1
aI-1
aI-1
aI-1
aa(lp385
I-1
aI-1
aI-1
aI-1
aa(lp386
I-1
aI-1
aI-1
aI-1
aa(lp387
I-1
aI-1
aI-1
aI-1
aa(lp388
I-1
aI-1
aI-1
aI-1
aa(lp389
I-1
aI-1
aI-1
aI-1
aa(lp390
I-1
aI-1
aI-1
aI-1
aa(lp391
I-1
aI-1
aI-1
aI-1
aa(lp392
I-1
aI-1
aI-1
aI-1
aa(lp393
I-1
aI-1
aI-1
aI-1
aa(lp394
I-1
aI-1
aI-1
aI-1
aa(lp395
I-1
aI-1
aI-1
aI-1
aa(lp396
I-1
aI-1
aI-1
aI-1
aa(lp397
I-1
aI-1
aI-1
aI-1
aa(lp398
I-1
aI-1
aI-1
aI-1
aa(lp399
I-1
aI-1
aI-1
aI-1
aa(lp400
I-1
aI-1
aI-1
aI-1
aa(lp401
I-1
aI-1
aI-1
aI-1
aa(lp402
I-1
aI-1
aI-1
aI-1
aa(lp403
I-1
aI-1
aI-1
aI-1
aa(lp404
I-1
aI-1
aI-1
aI-1
aa(lp405
I-1
aI-1
aI-1
aI-1
aa(lp406
I-1
aI-1
aI-1
aI-1
aa(lp407
I-1
aI-1
aI-1
aI-1
aa(lp408
I-1
aI-1
aI-1
aI-1
aa(lp409
I-1
aI-1
aI-1
aI-1
aa(lp410
I-1
aI-1
aI-1
aI-1
aa(lp411
I-1
aI-1
aI-1
aI-1
aa(lp412
I-1
aI-1
aI-1
aI-1
aa(lp413
I-1
aI-1
aI-1
aI-1
aa(lp414
I-1
aI-1
aI-1
aI-1
aa(lp415
I-1
aI-1
aI-1
aI-1
aa(lp416
I-1
aI-1
aI-1
aI-1
aa(lp417
I-1
aI-1
aI-1
aI-1
aa(lp418
I-1
aI-1
aI-1
aI-1
aa(lp419
I-1
aI-1
aI-1
aI-1
aa(lp420
I-1
aI-1
aI-1
aI-1
aa(lp421
I-1
aI-1
aI-1
aI-1
aa(lp422
I-1
aI-1
aI-1
aI-1
aa(lp423
I-1
aI-1
aI-1
aI-1
aa(lp424
I-1
aI-1
aI-1
aI-1
aa(lp425
I-1
aI-1
aI-1
aI-1
aa(lp426
I-1
aI-1
aI-1
aI-1
aa(lp427
I-1
aI-1
aI-1
aI-1
aa(lp428
I-1
aI-1
aI-1
aI-1
aa(lp429
I-1
aI-1
aI-1
aI-1
aa(lp430
I-1
aI-1
aI-1
aI-1
aa(lp431
I-1
aI-1
aI-1
aI-1
aa(lp432
I-1
aI-1
aI-1
aI-1
aa(lp433
I-1
aI-1
aI-1
aI-1
aa(lp434
I-1
aI-1
aI-1
aI-1
aa(lp435
I-1
aI-1
aI-1
aI-1
aa(lp436
I-1
aI-1
aI-1
aI-1
aa(lp437
I-1
aI-1
aI-1
aI-1
aa(lp438
I-1
aI-1
aI-1
aI-1
aa(lp439
I-1
aI-1
aI-1
aI-1
aa(lp440
I-1
aI-1
aI-1
aI-1
aa(lp441
I-1
aI-1
aI-1
aI-1
aa(lp442
I-1
aI-1
aI-1
aI-1
aa(lp443
I-1
aI-1
aI-1
aI-1
aa(lp444
I-1
aI-1
aI-1
aI-1
aa(lp445
I-1
aI-1
aI-1
aI-1
aa(lp446
I-1
aI-1
aI-1
aI-1
aa(lp447
I-1
aI-1
aI-1
aI-1
aa(lp448
I-1
aI-1
aI-1
aI-1
aa(lp449
I-1
aI-1
aI-1
aI-1
aa(lp450
I-1
aI-1
aI-1
aI-1
aa(lp451
I-1
aI-1
aI-1
aI-1
aa(lp452
I-1
aI-1
aI-1
aI-1
aa(lp453
I-1
aI-1
aI-1
aI-1
aa(lp454
I-1
aI-1
aI-1
aI-1
aa(lp455
I-1
aI-1
aI-1
aI-1
aa(lp456
I-1
aI-1
aI-1
aI-1
aa(lp457
I-1
aI-1
aI-1
aI-1
aa(lp458
I-1
aI-1
aI-1
aI-1
aa(lp459
I-1
aI-1
aI-1
aI-1
aa(lp460
I-1
aI-1
aI-1
aI-1
aa(lp461
I-1
aI-1
aI-1
aI-1
aa(lp462
I-1
aI-1
aI-1
aI-1
aa(lp463
I-1
aI-1
aI-1
aI-1
aa(lp464
I-1
aI-1
aI-1
aI-1
aa(lp465
I-1
aI-1
aI-1
aI-1
aa(lp466
I-1
aI-1
aI-1
aI-1
aa(lp467
I-1
aI-1
aI-1
aI-1
aa(lp468
I-1
aI-1
aI-1
aI-1
aa(lp469
I-1
aI-1
aI-1
aI-1
aa(lp470
I-1
aI-1
aI-1
aI-1
aa(lp471
I-1
aI-1
aI-1
aI-1
aa(lp472
I-1
aI-1
aI-1
aI-1
aa(lp473
I-1
aI-1
aI-1
aI-1
aa(lp474
I-1
aI-1
aI-1
aI-1
aa(lp475
I-1
aI-1
aI-1
aI-1
aa(lp476
I-1
aI-1
aI-1
aI-1
aa(lp477
I-1
aI-1
aI-1
aI-1
aa(lp478
I-1
aI-1
aI-1
aI-1
aa(lp479
I-1
aI-1
aI-1
aI-1
aa(lp480
I-1
aI-1
aI-1
aI-1
aa(lp481
I-1
aI-1
aI-1
aI-1
aa(lp482
I-1
aI-1
aI-1
aI-1
aa(lp483
I-1
aI-1
aI-1
aI-1
aa(lp484
I-1
aI-1
aI-1
aI-1
aa(lp485
I-1
aI-1
aI-1
aI-1
aa(lp486
I-1
aI-1
aI-1
aI-1
aa(lp487
I-1
aI-1
aI-1
aI-1
aa(lp488
I-1
aI-1
aI-1
aI-1
aa(lp489
I-1
aI-1
aI-1
aI-1
aa(lp490
I-1
aI-1
aI-1
aI-1
aa(lp491
I-1
aI-1
aI-1
aI-1
aa(lp492
I-1
aI-1
aI-1
aI-1
aa(lp493
I-1
aI-1
aI-1
aI-1
aa(lp494
I-1
aI-1
aI-1
aI-1
aa(lp495
I-1
aI-1
aI-1
aI-1
aa(lp496
I-1
aI-1
aI-1
aI-1
aa(lp497
I-1
aI-1
aI-1
aI-1
aa(lp498
I-1
aI-1
aI-1
aI-1
aa(lp499
I-1
aI-1
aI-1
aI-1
aa(lp500
I-1
aI-1
aI-1
aI-1
aa(lp501
I-1
aI-1
aI-1
aI-1
aa(lp502
I-1
aI-1
aI-1
aI-1
aa(lp503
I-1
aI-1
aI-1
aI-1
aa(lp504
I-1
aI-1
aI-1
aI-1
aa(lp505
I-1
aI-1
aI-1
aI-1
aa(lp506
I-1
aI-1
aI-1
aI-1
aa(lp507
I-1
aI-1
aI-1
aI-1
aa(lp508
I-1
aI-1
aI-1
aI-1
aa(lp509
I-1
aI-1
aI-1
aI-1
aa(lp510
I-1
aI-1
aI-1
aI-1
aa(lp511
I-1
aI-1
aI-1
aI-1
aa(lp512
I-1
aI-1
aI-1
aI-1
aa(lp513
I-1
aI-1
aI-1
aI-1
aa(lp514
I-1
aI-1
aI-1
aI-1
aa(lp515
I-1
aI-1
aI-1
aI-1
aa(lp516
I-1
aI-1
aI-1
aI-1
aa(lp517
I-1
aI-1
aI-1
aI-1
aa(lp518
I-1
aI-1
aI-1
aI-1
aa(lp519
I-1
aI-1
aI-1
aI-1
aa(lp520
I-1
aI-1
aI-1
aI-1
aa(lp521
I-1
aI-1
aI-1
aI-1
aa(lp522
I-1
aI-1
aI-1
aI-1
aa(lp523
I-1
aI-1
aI-1
aI-1
aa(lp524
I-1
aI-1
aI-1
aI-1
aa(lp525
I-1
aI-1
aI-1
aI-1
aa(lp526
I-1
aI-1
aI-1
aI-1
aa(lp527
I-1
aI-1
aI-1
aI-1
aa(lp528
I-1
aI-1
aI-1
aI-1
aa(lp529
I-1
aI-1
aI-1
aI-1
aa(lp530
I-1
aI-1
aI-1
aI-1
aa(lp531
I-1
aI-1
aI-1
aI-1
aa(lp532
I-1
aI-1
aI-1
aI-1
aa(lp533
I-1
aI-1
aI-1
aI-1
aa(lp534
I-1
aI-1
aI-1
aI-1
aa(lp535
I-1
aI-1
aI-1
aI-1
aa(lp536
I-1
aI-1
aI-1
aI-1
aa(lp537
I-1
aI-1
aI-1
aI-1
aa(lp538
I-1
aI-1
aI-1
aI-1
aa(lp539
I-1
aI-1
aI-1
aI-1
aa(lp540
I-1
aI-1
aI-1
aI-1
aa(lp541
I-1
aI-1
aI-1
aI-1
aa(lp542
I-1
aI-1
aI-1
aI-1
aa(lp543
I-1
aI-1
aI-1
aI-1
aa(lp544
I-1
aI-1
aI-1
aI-1
aa(lp545
I-1
aI-1
aI-1
aI-1
aa(lp546
I-1
aI-1
aI-1
aI-1
aa(lp547
I-1
aI-1
aI-1
aI-1
aa(lp548
I-1
aI-1
aI-1
aI-1
aa(lp549
I-1
aI-1
aI-1
aI-1
aa(lp550
I-1
aI-1
aI-1
aI-1
aa(lp551
I-1
aI-1
aI-1
aI-1
aa(lp552
I-1
aI-1
aI-1
aI-1
aa(lp553
I-1
aI-1
aI-1
aI-1
aa(lp554
I-1
aI-1
aI-1
aI-1
aa(lp555
I-1
aI-1
aI-1
aI-1
aa(lp556
I-1
aI-1
aI-1
aI-1
aa(lp557
I-1
aI-1
aI-1
aI-1
aa(lp558
I-1
aI-1
aI-1
aI-1
aa(lp559
I-1
aI-1
aI-1
aI-1
aa(lp560
I-1
aI-1
aI-1
aI-1
aa(lp561
I-1
aI-1
aI-1
aI-1
aa(lp562
I-1
aI-1
aI-1
aI-1
aa(lp563
I-1
aI-1
aI-1
aI-1
aa(lp564
I-1
aI-1
aI-1
aI-1
aa(lp565
I-1
aI-1
aI-1
aI-1
aa(lp566
I-1
aI-1
aI-1
aI-1
aa(lp567
I-1
aI-1
aI-1
aI-1
aa(lp568
I-1
aI-1
aI-1
aI-1
aa(lp569
I-1
aI-1
aI-1
aI-1
aa(lp570
I-1
aI-1
aI-1
aI-1
aa(lp571
I-1
aI-1
aI-1
aI-1
aa(lp572
I-1
aI-1
aI-1
aI-1
aa(lp573
I-1
aI-1
aI-1
aI-1
aa(lp574
I-1
aI-1
aI-1
aI-1
aa(lp575
I-1
aI-1
aI-1
aI-1
aa(lp576
I-1
aI-1
aI-1
aI-1
aa(lp577
I-1
aI-1
aI-1
aI-1
aa(lp578
I-1
aI-1
aI-1
aI-1
aa(lp579
I-1
aI-1
aI-1
aI-1
aa(lp580
I-1
aI-1
aI-1
aI-1
aa(lp581
I-1
aI-1
aI-1
aI-1
aa(lp582
I-1
aI-1
aI-1
aI-1
aa(lp583
I-1
aI-1
aI-1
aI-1
aa(lp584
I-1
aI-1
aI-1
aI-1
aa(lp585
I-1
aI-1
aI-1
aI-1
aa(lp586
I-1
aI-1
aI-1
aI-1
aa(lp587
I-1
aI-1
aI-1
aI-1
aa(lp588
I-1
aI-1
aI-1
aI-1
aa(lp589
I-1
aI-1
aI-1
aI-1
aa(lp590
I-1
aI-1
aI-1
aI-1
aa(lp591
I-1
aI-1
aI-1
aI-1
aa(lp592
I-1
aI-1
aI-1
aI-1
aa(lp593
I-1
aI-1
aI-1
aI-1
aa(lp594
I-1
aI-1
aI-1
aI-1
aa(lp595
I-1
aI-1
aI-1
aI-1
aa(lp596
I-1
aI-1
aI-1
aI-1
aa(lp597
I-1
aI-1
aI-1
aI-1
aa(lp598
I-1
aI-1
aI-1
aI-1
aa(lp599
I-1
aI-1
aI-1
aI-1
aa(lp600
I-1
aI-1
aI-1
aI-1
aa(lp601
I-1
aI-1
aI-1
aI-1
aa(lp602
I-1
aI-1
aI-1
aI-1
aa(lp603
I-1
aI-1
aI-1
aI-1
aa(lp604
I-1
aI-1
aI-1
aI-1
aa(lp605
I-1
aI-1
aI-1
aI-1
aa(lp606
I-1
aI-1
aI-1
aI-1
aa(lp607
I-1
aI-1
aI-1
aI-1
aa(lp608
I-1
aI-1
aI-1
aI-1
aa(lp609
I-1
aI-1
aI-1
aI-1
aa(lp610
I-1
aI-1
aI-1
aI-1
aa(lp611
I-1
aI-1
aI-1
aI-1
aa(lp612
I-1
aI-1
aI-1
aI-1
aa(lp613
I-1
aI-1
aI-1
aI-1
aa(lp614
I-1
aI-1
aI-1
aI-1
aa(lp615
I-1
aI-1
aI-1
aI-1
aa(lp616
I-1
aI-1
aI-1
aI-1
aa(lp617
I-1
aI-1
aI-1
aI-1
aa(lp618
I-1
aI-1
aI-1
aI-1
aa(lp619
I-1
aI-1
aI-1
aI-1
aa(lp620
I-1
aI-1
aI-1
aI-1
aa(lp621
I-1
aI-1
aI-1
aI-1
aa(lp622
I-1
aI-1
aI-1
aI-1
aa(lp623
I-1
aI-1
aI-1
aI-1
aa(lp624
I-1
aI-1
aI-1
aI-1
aa(lp625
I-1
aI-1
aI-1
aI-1
aa(lp626
I-1
aI-1
aI-1
aI-1
aa(lp627
I-1
aI-1
aI-1
aI-1
aa(lp628
I-1
aI-1
aI-1
aI-1
aa(lp629
I-1
aI-1
aI-1
aI-1
aa(lp630
I-1
aI-1
aI-1
aI-1
aa(lp631
I-1
aI-1
aI-1
aI-1
aa(lp632
I-1
aI-1
aI-1
aI-1
aa(lp633
I-1
aI-1
aI-1
aI-1
aa(lp634
I-1
aI-1
aI-1
aI-1
aa(lp635
I-1
aI-1
aI-1
aI-1
aa(lp636
I-1
aI-1
aI-1
aI-1
aa(lp637
I-1
aI-1
aI-1
aI-1
aa(lp638
I-1
aI-1
aI-1
aI-1
aa(lp639
I-1
aI-1
aI-1
aI-1
aa(lp640
I-1
aI-1
aI-1
aI-1
aa(lp641
I-1
aI-1
aI-1
aI-1
aa(lp642
I-1
aI-1
aI-1
aI-1
aa(lp643
I-1
aI-1
aI-1
aI-1
aa(lp644
I-1
aI-1
aI-1
aI-1
aa(lp645
I-1
aI-1
aI-1
aI-1
aa(lp646
I-1
aI-1
aI-1
aI-1
aa(lp647
I-1
aI-1
aI-1
aI-1
aa(lp648
I-1
aI-1
aI-1
aI-1
aa(lp649
I-1
aI-1
aI-1
aI-1
aa(lp650
I-1
aI-1
aI-1
aI-1
aa(lp651
I-1
aI-1
aI-1
aI-1
aa(lp652
I-1
aI-1
aI-1
aI-1
aa(lp653
I-1
aI-1
aI-1
aI-1
aa(lp654
I-1
aI-1
aI-1
aI-1
aa(lp655
I-1
aI-1
aI-1
aI-1
aa(lp656
I-1
aI-1
aI-1
aI-1
aa(lp657
I-1
aI-1
aI-1
aI-1
aa(lp658
I-1
aI-1
aI-1
aI-1
aa(lp659
I-1
aI-1
aI-1
aI-1
aa(lp660
I-1
aI-1
aI-1
aI-1
aa(lp661
I-1
aI-1
aI-1
aI-1
aa(lp662
I-1
aI-1
aI-1
aI-1
aa(lp663
I-1
aI-1
aI-1
aI-1
aa(lp664
I-1
aI-1
aI-1
aI-1
aa(lp665
I-1
aI-1
aI-1
aI-1
aa(lp666
I-1
aI-1
aI-1
aI-1
aa(lp667
I-1
aI-1
aI-1
aI-1
aa(lp668
I-1
aI-1
aI-1
aI-1
aa(lp669
I-1
aI-1
aI-1
aI-1
aa(lp670
I-1
aI-1
aI-1
aI-1
aa(lp671
I-1
aI-1
aI-1
aI-1
aa(lp672
I-1
aI-1
aI-1
aI-1
aa(lp673
I-1
aI-1
aI-1
aI-1
aa(lp674
I-1
aI-1
aI-1
aI-1
aa(lp675
I-1
aI-1
aI-1
aI-1
aa(lp676
I-1
aI-1
aI-1
aI-1
aa(lp677
I-1
aI-1
aI-1
aI-1
aa(lp678
I-1
aI-1
aI-1
aI-1
aa(lp679
I-1
aI-1
aI-1
aI-1
aa(lp680
I-1
aI-1
aI-1
aI-1
aa(lp681
I-1
aI-1
aI-1
aI-1
aa(lp682
I-1
aI-1
aI-1
aI-1
aa(lp683
I-1
aI-1
aI-1
aI-1
aa(lp684
I-1
aI-1
aI-1
aI-1
aa(lp685
I-1
aI-1
aI-1
aI-1
aa(lp686
I-1
aI-1
aI-1
aI-1
aa(lp687
I-1
aI-1
aI-1
aI-1
aa(lp688
I-1
aI-1
aI-1
aI-1
aa(lp689
I-1
aI-1
aI-1
aI-1
aa(lp690
I-1
aI-1
aI-1
aI-1
aa(lp691
I-1
aI-1
aI-1
aI-1
aa(lp692
I-1
aI-1
aI-1
aI-1
aa(lp693
I-1
aI-1
aI-1
aI-1
aa(lp694
I-1
aI-1
aI-1
aI-1
aa(lp695
I-1
aI-1
aI-1
aI-1
aa(lp696
I-1
aI-1
aI-1
aI-1
aa(lp697
I-1
aI-1
aI-1
aI-1
aa(lp698
I-1
aI-1
aI-1
aI-1
aa(lp699
I-1
aI-1
aI-1
aI-1
aa(lp700
I-1
aI-1
aI-1
aI-1
aa(lp701
I-1
aI-1
aI-1
aI-1
aa(lp702
I-1
aI-1
aI-1
aI-1
aa(lp703
I-1
aI-1
aI-1
aI-1
aa(lp704
I-1
aI-1
aI-1
aI-1
aa(lp705
I-1
aI-1
aI-1
aI-1
aa(lp706
I-1
aI-1
aI-1
aI-1
aa(lp707
I-1
aI-1
aI-1
aI-1
aa(lp708
I-1
aI-1
aI-1
aI-1
aa(lp709
I-1
aI-1
aI-1
aI-1
aa(lp710
I-1
aI-1
aI-1
aI-1
aa(lp711
I-1
aI-1
aI-1
aI-1
aa(lp712
I-1
aI-1
aI-1
aI-1
aa(lp713
I-1
aI-1
aI-1
aI-1
aa(lp714
I-1
aI-1
aI-1
aI-1
aa(lp715
I-1
aI-1
aI-1
aI-1
aa(lp716
I-1
aI-1
aI-1
aI-1
aa(lp717
I-1
aI-1
aI-1
aI-1
aa(lp718
I-1
aI-1
aI-1
aI-1
aa(lp719
I-1
aI-1
aI-1
aI-1
aa(lp720
I-1
aI-1
aI-1
aI-1
aa(lp721
I-1
aI-1
aI-1
aI-1
aa(lp722
I-1
aI-1
aI-1
aI-1
aa(lp723
I-1
aI-1
aI-1
aI-1
aa(lp724
I-1
aI-1
aI-1
aI-1
aa(lp725
I-1
aI-1
aI-1
aI-1
aa(lp726
I-1
aI-1
aI-1
aI-1
aa(lp727
I-1
aI-1
aI-1
aI-1
aa(lp728
I-1
aI-1
aI-1
aI-1
aa(lp729
I-1
aI-1
aI-1
aI-1
aa(lp730
I-1
aI-1
aI-1
aI-1
aa(lp731
I-1
aI-1
aI-1
aI-1
aa(lp732
I-1
aI-1
aI-1
aI-1
aa(lp733
I-1
aI-1
aI-1
aI-1
aa(lp734
I-1
aI-1
aI-1
aI-1
aa(lp735
I-1
aI-1
aI-1
aI-1
aa(lp736
I-1
aI-1
aI-1
aI-1
aa(lp737
I-1
aI-1
aI-1
aI-1
aa(lp738
I-1
aI-1
aI-1
aI-1
aa(lp739
I-1
aI-1
aI-1
aI-1
aa(lp740
I-1
aI-1
aI-1
aI-1
aa(lp741
I-1
aI-1
aI-1
aI-1
aa(lp742
I-1
aI-1
aI-1
aI-1
aa(lp743
I-1
aI-1
aI-1
aI-1
aa(lp744
I-1
aI-1
aI-1
aI-1
aa(lp745
I-1
aI-1
aI-1
aI-1
aa(lp746
I-1
aI-1
aI-1
aI-1
aa(lp747
I-1
aI-1
aI-1
aI-1
aa(lp748
I-1
aI-1
aI-1
aI-1
aa(lp749
I-1
aI-1
aI-1
aI-1
aa(lp750
I-1
aI-1
aI-1
aI-1
aa(lp751
I-1
aI-1
aI-1
aI-1
aa(lp752
I-1
aI-1
aI-1
aI-1
aa(lp753
I-1
aI-1
aI-1
aI-1
aa(lp754
I-1
aI-1
aI-1
aI-1
aa(lp755
I-1
aI-1
aI-1
aI-1
aa(lp756
I-1
aI-1
aI-1
aI-1
aa(lp757
I-1
aI-1
aI-1
aI-1
aa(lp758
I-1
aI-1
aI-1
aI-1
aa(lp759
I-1
aI-1
aI-1
aI-1
aa(lp760
I-1
aI-1
aI-1
aI-1
aa(lp761
I-1
aI-1
aI-1
aI-1
aa(lp762
I-1
aI-1
aI-1
aI-1
aa(lp763
I-1
aI-1
aI-1
aI-1
aa(lp764
I-1
aI-1
aI-1
aI-1
aa(lp765
I-1
aI-1
aI-1
aI-1
aa(lp766
I-1
aI-1
aI-1
aI-1
aa(lp767
I-1
aI-1
aI-1
aI-1
aa(lp768
I-1
aI-1
aI-1
aI-1
aa(lp769
I-1
aI-1
aI-1
aI-1
aa(lp770
I-1
aI-1
aI-1
aI-1
aa(lp771
I-1
aI-1
aI-1
aI-1
aa(lp772
I-1
aI-1
aI-1
aI-1
aa(lp773
I-1
aI-1
aI-1
aI-1
aa(lp774
I-1
aI-1
aI-1
aI-1
aa(lp775
I-1
aI-1
aI-1
aI-1
aa(lp776
I-1
aI-1
aI-1
aI-1
aa(lp777
I-1
aI-1
aI-1
aI-1
aa(lp778
I-1
aI-1
aI-1
aI-1
aa(lp779
I-1
aI-1
aI-1
aI-1
aa(lp780
I-1
aI-1
aI-1
aI-1
aa(lp781
I-1
aI-1
aI-1
aI-1
aa(lp782
I-1
aI-1
aI-1
aI-1
aa(lp783
I-1
aI-1
aI-1
aI-1
aa(lp784
I-1
aI-1
aI-1
aI-1
aa(lp785
I-1
aI-1
aI-1
aI-1
aa(lp786
I-1
aI-1
aI-1
aI-1
aa(lp787
I-1
aI-1
aI-1
aI-1
aa(lp788
I-1
aI-1
aI-1
aI-1
aa(lp789
I-1
aI-1
aI-1
aI-1
aa(lp790
I-1
aI-1
aI-1
aI-1
aa(lp791
I-1
aI-1
aI-1
aI-1
aa(lp792
I-1
aI-1
aI-1
aI-1
aa(lp793
I-1
aI-1
aI-1
aI-1
aa(lp794
I-1
aI-1
aI-1
aI-1
aa(lp795
I-1
aI-1
aI-1
aI-1
aa(lp796
I-1
aI-1
aI-1
aI-1
aa(lp797
I-1
aI-1
aI-1
aI-1
aa(lp798
I-1
aI-1
aI-1
aI-1
aa(lp799
I-1
aI-1
aI-1
aI-1
aa(lp800
I-1
aI-1
aI-1
aI-1
aa(lp801
I-1
aI-1
aI-1
aI-1
aa(lp802
I-1
aI-1
aI-1
aI-1
aa(lp803
I-1
aI-1
aI-1
aI-1
aa(lp804
I-1
aI-1
aI-1
aI-1
aa(lp805
I-1
aI-1
aI-1
aI-1
aa(lp806
I-1
aI-1
aI-1
aI-1
aa(lp807
I-1
aI-1
aI-1
aI-1
aa(lp808
I-1
aI-1
aI-1
aI-1
aa(lp809
I-1
aI-1
aI-1
aI-1
aa(lp810
I-1
aI-1
aI-1
aI-1
aa(lp811
I-1
aI-1
aI-1
aI-1
aa(lp812
I-1
aI-1
aI-1
aI-1
aa(lp813
I-1
aI-1
aI-1
aI-1
aa(lp814
I-1
aI-1
aI-1
aI-1
aa(lp815
I-1
aI-1
aI-1
aI-1
aa(lp816
I-1
aI-1
aI-1
aI-1
aa(lp817
I-1
aI-1
aI-1
aI-1
aa(lp818
I-1
aI-1
aI-1
aI-1
aa(lp819
I-1
aI-1
aI-1
aI-1
aa(lp820
I-1
aI-1
aI-1
aI-1
aa(lp821
I-1
aI-1
aI-1
aI-1
aa(lp822
I-1
aI-1
aI-1
aI-1
aa(lp823
I-1
aI-1
aI-1
aI-1
aa(lp824
I-1
aI-1
aI-1
aI-1
aa(lp825
I-1
aI-1
aI-1
aI-1
aa(lp826
I-1
aI-1
aI-1
aI-1
aa(lp827
I-1
aI-1
aI-1
aI-1
aa(lp828
I-1
aI-1
aI-1
aI-1
aa(lp829
I-1
aI-1
aI-1
aI-1
aa(lp830
I-1
aI-1
aI-1
aI-1
aa(lp831
I-1
aI-1
aI-1
aI-1
aa(lp832
I-1
aI-1
aI-1
aI-1
aa(lp833
I-1
aI-1
aI-1
aI-1
aa(lp834
I-1
aI-1
aI-1
aI-1
aa(lp835
I-1
aI-1
aI-1
aI-1
aa(lp836
I-1
aI-1
aI-1
aI-1
aa(lp837
I-1
aI-1
aI-1
aI-1
aa(lp838
I-1
aI-1
aI-1
aI-1
aa(lp839
I-1
aI-1
aI-1
aI-1
aa(lp840
I-1
aI-1
aI-1
aI-1
aa(lp841
I-1
aI-1
aI-1
aI-1
aa(lp842
I-1
aI-1
aI-1
aI-1
aa(lp843
I-1
aI-1
aI-1
aI-1
aa(lp844
I-1
aI-1
aI-1
aI-1
aa(lp845
I-1
aI-1
aI-1
aI-1
aa(lp846
I-1
aI-1
aI-1
aI-1
aa(lp847
I-1
aI-1
aI-1
aI-1
aa(lp848
I-1
aI-1
aI-1
aI-1
aa(lp849
I-1
aI-1
aI-1
aI-1
aa(lp850
I-1
aI-1
aI-1
aI-1
aa(lp851
I-1
aI-1
aI-1
aI-1
aa(lp852
I-1
aI-1
aI-1
aI-1
aa(lp853
I-1
aI-1
aI-1
aI-1
aa(lp854
I-1
aI-1
aI-1
aI-1
aa(lp855
I-1
aI-1
aI-1
aI-1
aa(lp856
I-1
aI-1
aI-1
aI-1
aa(lp857
I-1
aI-1
aI-1
aI-1
aa(lp858
I-1
aI-1
aI-1
aI-1
aa(lp859
I-1
aI-1
aI-1
aI-1
aa(lp860
I-1
aI-1
aI-1
aI-1
aa(lp861
I-1
aI-1
aI-1
aI-1
aa(lp862
I-1
aI-1
aI-1
aI-1
aa(lp863
I-1
aI-1
aI-1
aI-1
aa(lp864
I-1
aI-1
aI-1
aI-1
aa(lp865
I-1
aI-1
aI-1
aI-1
aa(lp866
I-1
aI-1
aI-1
aI-1
aa(lp867
I-1
aI-1
aI-1
aI-1
aa(lp868
I-1
aI-1
aI-1
aI-1
aa(lp869
I-1
aI-1
aI-1
aI-1
aa(lp870
I-1
aI-1
aI-1
aI-1
aa(lp871
I-1
aI-1
aI-1
aI-1
aa(lp872
I-1
aI-1
aI-1
aI-1
aa(lp873
I-1
aI-1
aI-1
aI-1
aa(lp874
I-1
aI-1
aI-1
aI-1
aa(lp875
I-1
aI-1
aI-1
aI-1
aa(lp876
I-1
aI-1
aI-1
aI-1
aa(lp877
I-1
aI-1
aI-1
aI-1
aa(lp878
I-1
aI-1
aI-1
aI-1
aa(lp879
I-1
aI-1
aI-1
aI-1
aa(lp880
I-1
aI-1
aI-1
aI-1
aa(lp881
I-1
aI-1
aI-1
aI-1
aa(lp882
I-1
aI-1
aI-1
aI-1
aa(lp883
I-1
aI-1
aI-1
aI-1
aa(lp884
I-1
aI-1
aI-1
aI-1
aa(lp885
I-1
aI-1
aI-1
aI-1
aa(lp886
I-1
aI-1
aI-1
aI-1
aa(lp887
I-1
aI-1
aI-1
aI-1
aa(lp888
I-1
aI-1
aI-1
aI-1
aa(lp889
I-1
aI-1
aI-1
aI-1
aa(lp890
I-1
aI-1
aI-1
aI-1
aa(lp891
I-1
aI-1
aI-1
aI-1
aa(lp892
I-1
aI-1
aI-1
aI-1
aa(lp893
I-1
aI-1
aI-1
aI-1
aa(lp894
I-1
aI-1
aI-1
aI-1
aa(lp895
I-1
aI-1
aI-1
aI-1
aa(lp896
I-1
aI-1
aI-1
aI-1
aa(lp897
I-1
aI-1
aI-1
aI-1
aa(lp898
I-1
aI-1
aI-1
aI-1
aa(lp899
I-1
aI-1
aI-1
aI-1
aa(lp900
I-1
aI-1
aI-1
aI-1
aa(lp901
I-1
aI-1
aI-1
aI-1
aa(lp902
I-1
aI-1
aI-1
aI-1
aa(lp903
I-1
aI-1
aI-1
aI-1
aa(lp904
I-1
aI-1
aI-1
aI-1
aa(lp905
I-1
aI-1
aI-1
aI-1
aa(lp906
I-1
aI-1
aI-1
aI-1
aa(lp907
I-1
aI-1
aI-1
aI-1
aa(lp908
I-1
aI-1
aI-1
aI-1
aa(lp909
I-1
aI-1
aI-1
aI-1
aa(lp910
I-1
aI-1
aI-1
aI-1
aa(lp911
I-1
aI-1
aI-1
aI-1
aa(lp912
I-1
aI-1
aI-1
aI-1
aa(lp913
I-1
aI-1
aI-1
aI-1
aa(lp914
I-1
aI-1
aI-1
aI-1
aa(lp915
I-1
aI-1
aI-1
aI-1
aa(lp916
I-1
aI-1
aI-1
aI-1
aa(lp917
I-1
aI-1
aI-1
aI-1
aa(lp918
I-1
aI-1
aI-1
aI-1
aa(lp919
I-1
aI-1
aI-1
aI-1
aa(lp920
I-1
aI-1
aI-1
aI-1
aa(lp921
I-1
aI-1
aI-1
aI-1
aa(lp922
I-1
aI-1
aI-1
aI-1
aa(lp923
I-1
aI-1
aI-1
aI-1
aa(lp924
I-1
aI-1
aI-1
aI-1
aa(lp925
I-1
aI-1
aI-1
aI-1
aa(lp926
I-1
aI-1
aI-1
aI-1
aa(lp927
I-1
aI-1
aI-1
aI-1
aa(lp928
I-1
aI-1
aI-1
aI-1
aa(lp929
I-1
aI-1
aI-1
aI-1
aa(lp930
I-1
aI-1
aI-1
aI-1
aa(lp931
I-1
aI-1
aI-1
aI-1
aa(lp932
I-1
aI-1
aI-1
aI-1
aa(lp933
I-1
aI-1
aI-1
aI-1
aa(lp934
I-1
aI-1
aI-1
aI-1
aa(lp935
I-1
aI-1
aI-1
aI-1
aa(lp936
I-1
aI-1
aI-1
aI-1
aa(lp937
I-1
aI-1
aI-1
aI-1
aa(lp938
I-1
aI-1
aI-1
aI-1
aa(lp939
I-1
aI-1
aI-1
aI-1
aa(lp940
I-1
aI-1
aI-1
aI-1
aa(lp941
I-1
aI-1
aI-1
aI-1
aa(lp942
I-1
aI-1
aI-1
aI-1
aa(lp943
I-1
aI-1
aI-1
aI-1
aa(lp944
I-1
aI-1
aI-1
aI-1
aa(lp945
I-1
aI-1
aI-1
aI-1
aa(lp946
I-1
aI-1
aI-1
aI-1
aa(lp947
I-1
aI-1
aI-1
aI-1
aa(lp948
I-1
aI-1
aI-1
aI-1
aa(lp949
I-1
aI-1
aI-1
aI-1
aa(lp950
I-1
aI-1
aI-1
aI-1
aa(lp951
I-1
aI-1
aI-1
aI-1
aa(lp952
I-1
aI-1
aI-1
aI-1
aa(lp953
I-1
aI-1
aI-1
aI-1
aa(lp954
I-1
aI-1
aI-1
aI-1
aa(lp955
I-1
aI-1
aI-1
aI-1
aa(lp956
I-1
aI-1
aI-1
aI-1
aa(lp957
I-1
aI-1
aI-1
aI-1
aa(lp958
I-1
aI-1
aI-1
aI-1
aa(lp959
I-1
aI-1
aI-1
aI-1
aa(lp960
I-1
aI-1
aI-1
aI-1
aa(lp961
I-1
aI-1
aI-1
aI-1
aa(lp962
I-1
aI-1
aI-1
aI-1
aa(lp963
I-1
aI-1
aI-1
aI-1
aa(lp964
I-1
aI-1
aI-1
aI-1
aa(lp965
I-1
aI-1
aI-1
aI-1
aa(lp966
I-1
aI-1
aI-1
aI-1
aa(lp967
I-1
aI-1
aI-1
aI-1
aa(lp968
I-1
aI-1
aI-1
aI-1
aa(lp969
I-1
aI-1
aI-1
aI-1
aa(lp970
I-1
aI-1
aI-1
aI-1
aa(lp971
I-1
aI-1
aI-1
aI-1
aa(lp972
I-1
aI-1
aI-1
aI-1
aa(lp973
I-1
aI-1
aI-1
aI-1
aa(lp974
I-1
aI-1
aI-1
aI-1
aa(lp975
I-1
aI-1
aI-1
aI-1
aa(lp976
I-1
aI-1
aI-1
aI-1
aa(lp977
I-1
aI-1
aI-1
aI-1
aa(lp978
I-1
aI-1
aI-1
aI-1
aa(lp979
I-1
aI-1
aI-1
aI-1
aa(lp980
I-1
aI-1
aI-1
aI-1
aa(lp981
I-1
aI-1
aI-1
aI-1
aa(lp982
I-1
aI-1
aI-1
aI-1
aa(lp983
I-1
aI-1
aI-1
aI-1
aa(lp984
I-1
aI-1
aI-1
aI-1
aa(lp985
I-1
aI-1
aI-1
aI-1
aa(lp986
I-1
aI-1
aI-1
aI-1
aa(lp987
I-1
aI-1
aI-1
aI-1
aa(lp988
I-1
aI-1
aI-1
aI-1
aa(lp989
I-1
aI-1
aI-1
aI-1
aa(lp990
I-1
aI-1
aI-1
aI-1
aa(lp991
I-1
aI-1
aI-1
aI-1
aa(lp992
I-1
aI-1
aI-1
aI-1
aa(lp993
I-1
aI-1
aI-1
aI-1
aa(lp994
I-1
aI-1
aI-1
aI-1
aa(lp995
I-1
aI-1
aI-1
aI-1
aa(lp996
I-1
aI-1
aI-1
aI-1
aa(lp997
I-1
aI-1
aI-1
aI-1
aa(lp998
I-1
aI-1
aI-1
aI-1
aa(lp999
I-1
aI-1
aI-1
aI-1
aa(lp1000
I-1
aI-1
aI-1
aI-1
aa(lp1001
I-1
aI-1
aI-1
aI-1
aa(lp1002
I-1
aI-1
aI-1
aI-1
aa(lp1003
I-1
aI-1
aI-1
aI-1
aa(lp1004
I-1
aI-1
aI-1
aI-1
aa(lp1005
I-1
aI-1
aI-1
aI-1
aa(lp1006
I-1
aI-1
aI-1
aI-1
aa(lp1007
I-1
aI-1
aI-1
aI-1
aa(lp1008
I-1
aI-1
aI-1
aI-1
aa(lp1009
I-1
aI-1
aI-1
aI-1
aa(lp1010
I-1
aI-1
aI-1
aI-1
aa(lp1011
I-1
aI-1
aI-1
aI-1
aa(lp1012
I-1
aI-1
aI-1
aI-1
aa(lp1013
I-1
aI-1
aI-1
aI-1
aa(lp1014
I-1
aI-1
aI-1
aI-1
aa(lp1015
I-1
aI-1
aI-1
aI-1
aa(lp1016
I-1
aI-1
aI-1
aI-1
aa(lp1017
I-1
aI-1
aI-1
aI-1
aa(lp1018
I-1
aI-1
aI-1
aI-1
aa(lp1019
I-1
aI-1
aI-1
aI-1
aa(lp1020
I-1
aI-1
aI-1
aI-1
aa(lp1021
I-1
aI-1
aI-1
aI-1
aa(lp1022
I-1
aI-1
aI-1
aI-1
aa(lp1023
I-1
aI-1
aI-1
aI-1
aa(lp1024
I-1
aI-1
aI-1
aI-1
aa(lp1025
I-1
aI-1
aI-1
aI-1
aa(lp1026
I-1
aI-1
aI-1
aI-1
aa(lp1027
I-1
aI-1
aI-1
aI-1
aa(lp1028
I-1
aI-1
aI-1
aI-1
aa(lp1029
I-1
aI-1
aI-1
aI-1
aa(lp1030
I-1
aI-1
aI-1
aI-1
aa(lp1031
I-1
aI-1
aI-1
aI-1
aa(lp1032
I-1
aI-1
aI-1
aI-1
aa(lp1033
I-1
aI-1
aI-1
aI-1
aa(lp1034
I-1
aI-1
aI-1
aI-1
aa(lp1035
I-1
aI-1
aI-1
aI-1
aa(lp1036
I-1
aI-1
aI-1
aI-1
aa(lp1037
I-1
aI-1
aI-1
aI-1
aa(lp1038
I-1
aI-1
aI-1
aI-1
aa(lp1039
I-1
aI-1
aI-1
aI-1
aa(lp1040
I-1
aI-1
aI-1
aI-1
aa(lp1041
I-1
aI-1
aI-1
aI-1
aa(lp1042
I-1
aI-1
aI-1
aI-1
aa(lp1043
I-1
aI-1
aI-1
aI-1
aa(lp1044
I-1
aI-1
aI-1
aI-1
aa(lp1045
I-1
aI-1
aI-1
aI-1
aa(lp1046
I-1
aI-1
aI-1
aI-1
aa(lp1047
I-1
aI-1
aI-1
aI-1
aa(lp1048
I-1
aI-1
aI-1
aI-1
aa(lp1049
I-1
aI-1
aI-1
aI-1
aa(lp1050
I-1
aI-1
aI-1
aI-1
aa(lp1051
I-1
aI-1
aI-1
aI-1
aa(lp1052
I-1
aI-1
aI-1
aI-1
aa(lp1053
I-1
aI-1
aI-1
aI-1
aa(lp1054
I-1
aI-1
aI-1
aI-1
aa(lp1055
I-1
aI-1
aI-1
aI-1
aa(lp1056
I-1
aI-1
aI-1
aI-1
aa(lp1057
I-1
aI-1
aI-1
aI-1
aa(lp1058
I-1
aI-1
aI-1
aI-1
aa(lp1059
I-1
aI-1
aI-1
aI-1
aa(lp1060
I-1
aI-1
aI-1
aI-1
aa(lp1061
I-1
aI-1
aI-1
aI-1
aa(lp1062
I-1
aI-1
aI-1
aI-1
aa(lp1063
I-1
aI-1
aI-1
aI-1
aa(lp1064
I-1
aI-1
aI-1
aI-1
aa(lp1065
I-1
aI-1
aI-1
aI-1
aa(lp1066
I-1
aI-1
aI-1
aI-1
aa(lp1067
I-1
aI-1
aI-1
aI-1
aa(lp1068
I-1
aI-1
aI-1
aI-1
aa(lp1069
I-1
aI-1
aI-1
aI-1
aa(lp1070
I-1
aI-1
aI-1
aI-1
aa(lp1071
I-1
aI-1
aI-1
aI-1
aa(lp1072
I-1
aI-1
aI-1
aI-1
aa(lp1073
I-1
aI-1
aI-1
aI-1
aa(lp1074
I-1
aI-1
aI-1
aI-1
aa(lp1075
I-1
aI-1
aI-1
aI-1
aa(lp1076
I-1
aI-1
aI-1
aI-1
aa(lp1077
I-1
aI-1
aI-1
aI-1
aa(lp1078
I-1
aI-1
aI-1
aI-1
aa(lp1079
I-1
aI-1
aI-1
aI-1
aa(lp1080
I-1
aI-1
aI-1
aI-1
aa(lp1081
I-1
aI-1
aI-1
aI-1
aa(lp1082
I-1
aI-1
aI-1
aI-1
aa(lp1083
I-1
aI-1
aI-1
aI-1
aa(lp1084
I-1
aI-1
aI-1
aI-1
aa(lp1085
I-1
aI-1
aI-1
aI-1
aa(lp1086
I-1
aI-1
aI-1
aI-1
aa.